; Function Attrs: mustprogress nofree norecurse nosync nounwind willreturn memory(read, inaccessiblemem: none) uwtable
define noundef i32 @_ZNK6icu_7713CollationData15getIndirectCE32Ej(ptr noundef nonnull readonly align 8 captures(none) dereferenceable(140) %0, i32 noundef %1) local_unnamed_addr #0 align 2 {
  %3 = and i32 %1, 15
  switch i32 %3, label %.fold.split [
    i32 10, label %4
    i32 13, label %15
    i32 11, label %11
  ]

4:                                                ; preds = %2
  %5 = getelementptr inbounds nuw i8, ptr %0, i64 8
  %6 = load ptr, ptr %5, align 8, !tbaa !3
  %7 = lshr i32 %1, 13
  %8 = zext nneg i32 %7 to i64
  %9 = getelementptr inbounds nuw i32, ptr %6, i64 %8
  %10 = load i32, ptr %9, align 4, !tbaa !18
  br label %15

11:                                               ; preds = %2
  %12 = getelementptr inbounds nuw i8, ptr %0, i64 8
  %13 = load ptr, ptr %12, align 8, !tbaa !3
  %14 = load i32, ptr %13, align 4, !tbaa !18
  br label %15

.fold.split:                                      ; preds = %2
  br label %15

15:                                               ; preds = %2, %.fold.split, %11, %4
  %.0 = phi i32 [ %10, %4 ], [ %14, %11 ], [ -1, %2 ], [ %1, %.fold.split ]
  ret i32 %.0
}